target datalayout = "e-m:e-p270:32:32-p271:32:32-p272:64:64-i64:64-i128:128-f80:128-n8:16:32:64-S128"
target triple = "x86_64-pc-linux-gnu"

; Function Attrs: nounwind uwtable
define internal i32 @sort_comp(ptr noundef %0, i32 noundef %1, i32 noundef %2) #0 {
  %4 = alloca i32, align 4
  %5 = alloca ptr, align 8
  %6 = alloca i32, align 4
  %7 = alloca i32, align 4
  %8 = alloca i32, align 4
  store ptr %0, ptr %5, align 8, !tbaa !4
  store i32 %1, ptr %6, align 4, !tbaa !33
  store i32 %2, ptr %7, align 4, !tbaa !33
  %9 = load ptr, ptr %5, align 8, !tbaa !4
  %10 = call i32 @lua_type(ptr noundef %9, i32 noundef 2)
  %11 = icmp eq i32 %10, 0
  br i1 %11, label %25, label %12

12:                                               ; preds = %3
  call void @llvm.lifetime.start.p0(i64 4, ptr %8) #7
  %13 = load ptr, ptr %5, align 8, !tbaa !4
  call void @lua_pushvalue(ptr noundef %13, i32 noundef 2)
  %14 = load ptr, ptr %5, align 8, !tbaa !4
  %15 = load i32, ptr %6, align 4, !tbaa !33
  %16 = sub nsw i32 %15, 1
  call void @lua_pushvalue(ptr noundef %14, i32 noundef %16)
  %17 = load ptr, ptr %5, align 8, !tbaa !4
  %18 = load i32, ptr %7, align 4, !tbaa !33
  %19 = sub nsw i32 %18, 2
  call void @lua_pushvalue(ptr noundef %17, i32 noundef %19)
  %20 = load ptr, ptr %5, align 8, !tbaa !4
  call void @lua_call(ptr noundef %20, i32 noundef 2, i32 noundef 1)
  %21 = load ptr, ptr %5, align 8, !tbaa !4
  %22 = call i32 @lua_toboolean(ptr noundef %21, i32 noundef -1)
  store i32 %22, ptr %8, align 4, !tbaa !33
  %23 = load ptr, ptr %5, align 8, !tbaa !4
  call void @lua_settop(ptr noundef %23, i32 noundef -2)
  %24 = load i32, ptr %8, align 4, !tbaa !33
  store i32 %24, ptr %4, align 4
  call void @llvm.lifetime.end.p0(i64 4, ptr %8) #7
  br label %30

25:                                               ; preds = %3
  %26 = load ptr, ptr %5, align 8, !tbaa !4
  %27 = load i32, ptr %6, align 4, !tbaa !33
  %28 = load i32, ptr %7, align 4, !tbaa !33
  %29 = call i32 @lua_lessthan(ptr noundef %26, i32 noundef %27, i32 noundef %28)
  store i32 %29, ptr %4, align 4
  br label %30

30:                                               ; preds = %25, %12
  %31 = load i32, ptr %4, align 4
  ret i32 %31
}