; Function Attrs: nounwind uwtable
define internal fastcc i32 @sort_comp(ptr noundef %0, i32 noundef range(i32 -3, 0) %1, i32 noundef range(i32 -2, 0) %2) unnamed_addr #0 {
  %4 = tail call i32 @lua_type(ptr noundef %0, i32 noundef 2) #4
  %5 = icmp eq i32 %4, 0
  br i1 %5, label %10, label %6

6:                                                ; preds = %3
  tail call void @lua_pushvalue(ptr noundef %0, i32 noundef 2) #4
  %7 = add nsw i32 %1, -1
  tail call void @lua_pushvalue(ptr noundef %0, i32 noundef %7) #4
  %8 = add nsw i32 %2, -2
  tail call void @lua_pushvalue(ptr noundef %0, i32 noundef %8) #4
  tail call void @lua_call(ptr noundef %0, i32 noundef 2, i32 noundef 1) #4
  %9 = tail call i32 @lua_toboolean(ptr noundef %0, i32 noundef -1) #4
  tail call void @lua_settop(ptr noundef %0, i32 noundef -2) #4
  br label %12

10:                                               ; preds = %3
  %11 = tail call i32 @lua_lessthan(ptr noundef %0, i32 noundef %1, i32 noundef %2) #4
  br label %12

12:                                               ; preds = %10, %6
  %.0 = phi i32 [ %11, %10 ], [ %9, %6 ]
  ret i32 %.0
}